target datalayout = "e-m:e-p270:32:32-p271:32:32-p272:64:64-i64:64-i128:128-f80:128-n8:16:32:64-S128"
target triple = "x86_64-pc-linux-gnu"

%struct.gpg_format = type { ptr, ptr, ptr, ptr, ptr, ptr, ptr, ptr }

; Function Attrs: nounwind uwtable
define internal ptr @get_format_by_sig(ptr noundef %0) #0 {
  %2 = alloca ptr, align 8
  %3 = alloca ptr, align 8
  %4 = alloca i32, align 4
  %5 = alloca i64, align 8
  %6 = alloca i32, align 4
  store ptr %0, ptr %3, align 8, !tbaa !20
  call void @llvm.lifetime.start.p0(i64 4, ptr %4) #8
  call void @llvm.lifetime.start.p0(i64 8, ptr %5) #8
  store i64 0, ptr %5, align 8, !tbaa !21
  br label %7

7:                                                ; preds = %42, %1
  %8 = load i64, ptr %5, align 8, !tbaa !21
  %9 = icmp ult i64 %8, 3
  br i1 %9, label %11, label %10

10:                                               ; preds = %7
  store i32 2, ptr %6, align 4
  br label %45

11:                                               ; preds = %7
  store i32 0, ptr %4, align 4, !tbaa !29
  br label %12

12:                                               ; preds = %38, %11
  %13 = load i64, ptr %5, align 8, !tbaa !21
  %14 = getelementptr inbounds nuw [3 x %struct.gpg_format], ptr @gpg_format, i64 0, i64 %13
  %15 = getelementptr inbounds nuw %struct.gpg_format, ptr %14, i32 0, i32 3
  %16 = load ptr, ptr %15, align 8, !tbaa !30
  %17 = load i32, ptr %4, align 4, !tbaa !29
  %18 = sext i32 %17 to i64
  %19 = getelementptr inbounds ptr, ptr %16, i64 %18
  %20 = load ptr, ptr %19, align 8, !tbaa !20
  %21 = icmp ne ptr %20, null
  br i1 %21, label %22, label %41

22:                                               ; preds = %12
  %23 = load ptr, ptr %3, align 8, !tbaa !20
  %24 = load i64, ptr %5, align 8, !tbaa !21
  %25 = getelementptr inbounds nuw [3 x %struct.gpg_format], ptr @gpg_format, i64 0, i64 %24
  %26 = getelementptr inbounds nuw %struct.gpg_format, ptr %25, i32 0, i32 3
  %27 = load ptr, ptr %26, align 8, !tbaa !30
  %28 = load i32, ptr %4, align 4, !tbaa !29
  %29 = sext i32 %28 to i64
  %30 = getelementptr inbounds ptr, ptr %27, i64 %29
  %31 = load ptr, ptr %30, align 8, !tbaa !20
  %32 = call i32 @starts_with(ptr noundef %23, ptr noundef %31)
  %33 = icmp ne i32 %32, 0
  br i1 %33, label %34, label %37

34:                                               ; preds = %22
  %35 = load i64, ptr %5, align 8, !tbaa !21
  %36 = getelementptr inbounds nuw %struct.gpg_format, ptr @gpg_format, i64 %35
  store ptr %36, ptr %2, align 8
  store i32 1, ptr %6, align 4
  br label %45

37:                                               ; preds = %22
  br label %38

38:                                               ; preds = %37
  %39 = load i32, ptr %4, align 4, !tbaa !29
  %40 = add nsw i32 %39, 1
  store i32 %40, ptr %4, align 4, !tbaa !29
  br label %12, !llvm.loop !31

41:                                               ; preds = %12
  br label %42

42:                                               ; preds = %41
  %43 = load i64, ptr %5, align 8, !tbaa !21
  %44 = add i64 %43, 1
  store i64 %44, ptr %5, align 8, !tbaa !21
  br label %7, !llvm.loop !33

45:                                               ; preds = %34, %10
  call void @llvm.lifetime.end.p0(i64 8, ptr %5) #8
  %46 = load i32, ptr %6, align 4
  switch i32 %46, label %48 [
    i32 2, label %47
  ]

47:                                               ; preds = %45
  store ptr null, ptr %2, align 8
  store i32 1, ptr %6, align 4
  br label %48

48:                                               ; preds = %47, %45
  call void @llvm.lifetime.end.p0(i64 4, ptr %4) #8
  %49 = load ptr, ptr %2, align 8
  ret ptr %49
}

; Function Attrs: nounwind uwtable
define dso_local i64 @parse_signed_buffer(ptr noundef %0, i64 noundef %1) #0 {
  %3 = alloca ptr, align 8
  %4 = alloca i64, align 8
  %5 = alloca i64, align 8
  %6 = alloca i64, align 8
  %7 = alloca ptr, align 8
  store ptr %0, ptr %3, align 8, !tbaa !20
  store i64 %1, ptr %4, align 8, !tbaa !21
  call void @llvm.lifetime.start.p0(i64 8, ptr %5) #8
  store i64 0, ptr %5, align 8, !tbaa !21
  call void @llvm.lifetime.start.p0(i64 8, ptr %6) #8
  %8 = load i64, ptr %4, align 8, !tbaa !21
  store i64 %8, ptr %6, align 8, !tbaa !21
  br label %9

9:                                                ; preds = %44, %2
  %10 = load i64, ptr %5, align 8, !tbaa !21
  %11 = load i64, ptr %4, align 8, !tbaa !21
  %12 = icmp ult i64 %10, %11
  br i1 %12, label %13, label %48

13:                                               ; preds = %9
  call void @llvm.lifetime.start.p0(i64 8, ptr %7) #8
  %14 = load ptr, ptr %3, align 8, !tbaa !20
  %15 = load i64, ptr %5, align 8, !tbaa !21
  %16 = getelementptr inbounds nuw i8, ptr %14, i64 %15
  %17 = call ptr @get_format_by_sig(ptr noundef %16)
  %18 = icmp ne ptr %17, null
  br i1 %18, label %19, label %21

19:                                               ; preds = %13
  %20 = load i64, ptr %5, align 8, !tbaa !21
  store i64 %20, ptr %6, align 8, !tbaa !21
  br label %21

21:                                               ; preds = %19, %13
  %22 = load ptr, ptr %3, align 8, !tbaa !20
  %23 = load i64, ptr %5, align 8, !tbaa !21
  %24 = getelementptr inbounds nuw i8, ptr %22, i64 %23
  %25 = load i64, ptr %4, align 8, !tbaa !21
  %26 = load i64, ptr %5, align 8, !tbaa !21
  %27 = sub i64 %25, %26
  %28 = call ptr @memchr(ptr noundef %24, i32 noundef 10, i64 noundef %27) #10
  store ptr %28, ptr %7, align 8, !tbaa !20
  %29 = load ptr, ptr %7, align 8, !tbaa !20
  %30 = icmp ne ptr %29, null
  br i1 %30, label %31, label %40

31:                                               ; preds = %21
  %32 = load ptr, ptr %7, align 8, !tbaa !20
  %33 = load ptr, ptr %3, align 8, !tbaa !20
  %34 = load i64, ptr %5, align 8, !tbaa !21
  %35 = getelementptr inbounds nuw i8, ptr %33, i64 %34
  %36 = ptrtoint ptr %32 to i64
  %37 = ptrtoint ptr %35 to i64
  %38 = sub i64 %36, %37
  %39 = add nsw i64 %38, 1
  br label %44

40:                                               ; preds = %21
  %41 = load i64, ptr %4, align 8, !tbaa !21
  %42 = load i64, ptr %5, align 8, !tbaa !21
  %43 = sub i64 %41, %42
  br label %44

44:                                               ; preds = %40, %31
  %45 = phi i64 [ %39, %31 ], [ %43, %40 ]
  %46 = load i64, ptr %5, align 8, !tbaa !21
  %47 = add i64 %46, %45
  store i64 %47, ptr %5, align 8, !tbaa !21
  call void @llvm.lifetime.end.p0(i64 8, ptr %7) #8
  br label %9, !llvm.loop !43

48:                                               ; preds = %9
  %49 = load i64, ptr %6, align 8, !tbaa !21
  call void @llvm.lifetime.end.p0(i64 8, ptr %6) #8
  call void @llvm.lifetime.end.p0(i64 8, ptr %5) #8
  ret i64 %49
}

; Function Attrs: nounwind uwtable
define dso_local i32 @parse_signature(ptr noundef %0, i64 noundef %1, ptr noundef %2, ptr noundef %3) #0 {
  %5 = alloca i32, align 4
  %6 = alloca ptr, align 8
  %7 = alloca i64, align 8
  %8 = alloca ptr, align 8
  %9 = alloca ptr, align 8
  %10 = alloca i64, align 8
  %11 = alloca i32, align 4
  store ptr %0, ptr %6, align 8, !tbaa !20
  store i64 %1, ptr %7, align 8, !tbaa !21
  store ptr %2, ptr %8, align 8, !tbaa !44
  store ptr %3, ptr %9, align 8, !tbaa !44
  call void @llvm.lifetime.start.p0(i64 8, ptr %10) #8
  %12 = load ptr, ptr %6, align 8, !tbaa !20
  %13 = load i64, ptr %7, align 8, !tbaa !21
  %14 = call i64 @parse_signed_buffer(ptr noundef %12, i64 noundef %13)
  store i64 %14, ptr %10, align 8, !tbaa !21
  %15 = load i64, ptr %10, align 8, !tbaa !21
  %16 = load i64, ptr %7, align 8, !tbaa !21
  %17 = icmp ne i64 %15, %16
  br i1 %17, label %18, label %31

18:                                               ; preds = %4
  %19 = load ptr, ptr %8, align 8, !tbaa !44
  %20 = load ptr, ptr %6, align 8, !tbaa !20
  %21 = load i64, ptr %10, align 8, !tbaa !21
  call void @strbuf_add(ptr noundef %19, ptr noundef %20, i64 noundef %21)
  %22 = load ptr, ptr %8, align 8, !tbaa !44
  %23 = call i32 @remove_signature(ptr noundef %22)
  %24 = load ptr, ptr %9, align 8, !tbaa !44
  %25 = load ptr, ptr %6, align 8, !tbaa !20
  %26 = load i64, ptr %10, align 8, !tbaa !21
  %27 = getelementptr inbounds nuw i8, ptr %25, i64 %26
  %28 = load i64, ptr %7, align 8, !tbaa !21
  %29 = load i64, ptr %10, align 8, !tbaa !21
  %30 = sub i64 %28, %29
  call void @strbuf_add(ptr noundef %24, ptr noundef %27, i64 noundef %30)
  store i32 1, ptr %5, align 4
  store i32 1, ptr %11, align 4
  br label %32

31:                                               ; preds = %4
  store i32 0, ptr %5, align 4
  store i32 1, ptr %11, align 4
  br label %32

32:                                               ; preds = %31, %18
  call void @llvm.lifetime.end.p0(i64 8, ptr %10) #8
  %33 = load i32, ptr %5, align 4
  ret i32 %33
}