; Function Attrs: nounwind uwtable
define dso_local range(i32 0, 2) i32 @parse_signature(ptr noundef %0, i64 noundef %1, ptr noundef %2, ptr noundef %3) local_unnamed_addr #2 {
  %.not.i = icmp eq i64 %1, 0
  br i1 %.not.i, label %parse_signed_buffer.exit, label %.lr.ph.i

.lr.ph.i:                                         ; preds = %4, %get_format_by_sig.exit.i
  %.023.i = phi i64 [ %22, %get_format_by_sig.exit.i ], [ 0, %4 ]
  %.01722.i = phi i64 [ %spec.select.i.i, %get_format_by_sig.exit.i ], [ %1, %4 ]
  %5 = getelementptr inbounds nuw i8, ptr %0, i64 %.023.i
  br label %.preheader.i.i

.preheader.i.i:                                   ; preds = %._crit_edge.i.i, %.lr.ph.i
  %.01018.i.i = phi i64 [ 0, %.lr.ph.i ], [ %15, %._crit_edge.i.i ]
  %6 = getelementptr inbounds nuw [3 x %struct.gpg_format], ptr @gpg_format, i64 0, i64 %.01018.i.i, i32 3
  %7 = load ptr, ptr %6, align 8, !tbaa !22
  %8 = load ptr, ptr %7, align 8, !tbaa !25
  %.not16.i.i = icmp eq ptr %8, null
  br i1 %.not16.i.i, label %._crit_edge.i.i, label %.lr.ph.i.i

9:                                                ; preds = %.lr.ph.i.i
  %indvars.iv.next.i.i = add nuw nsw i64 %indvars.iv.i.i, 1
  %10 = load ptr, ptr %6, align 8, !tbaa !22
  %11 = getelementptr inbounds nuw ptr, ptr %10, i64 %indvars.iv.next.i.i
  %12 = load ptr, ptr %11, align 8, !tbaa !25
  %.not.i.i = icmp eq ptr %12, null
  br i1 %.not.i.i, label %._crit_edge.i.i, label %.lr.ph.i.i, !llvm.loop !26

.lr.ph.i.i:                                       ; preds = %.preheader.i.i, %9
  %indvars.iv.i.i = phi i64 [ %indvars.iv.next.i.i, %9 ], [ 0, %.preheader.i.i ]
  %13 = phi ptr [ %12, %9 ], [ %8, %.preheader.i.i ]
  %14 = tail call i32 @starts_with(ptr noundef %5, ptr noundef nonnull %13) #15
  %.not14.i.i = icmp eq i32 %14, 0
  br i1 %.not14.i.i, label %9, label %get_format_by_sig.exit.i

._crit_edge.i.i:                                  ; preds = %9, %.preheader.i.i
  %15 = add nuw nsw i64 %.01018.i.i, 1
  %exitcond.i.i = icmp eq i64 %15, 3
  br i1 %exitcond.i.i, label %get_format_by_sig.exit.i, label %.preheader.i.i, !llvm.loop !28

get_format_by_sig.exit.i:                         ; preds = %._crit_edge.i.i, %.lr.ph.i.i
  %spec.select.i.i = phi i64 [ %.023.i, %.lr.ph.i.i ], [ %.01722.i, %._crit_edge.i.i ]
  %16 = sub i64 %1, %.023.i
  %17 = tail call ptr @memchr(ptr noundef %5, i32 noundef 10, i64 noundef %16) #18
  %.not20.i = icmp eq ptr %17, null
  %18 = ptrtoint ptr %17 to i64
  %19 = ptrtoint ptr %5 to i64
  %reass.sub = sub i64 %18, %19
  %20 = add i64 %reass.sub, 1
  %21 = select i1 %.not20.i, i64 %16, i64 %20
  %22 = add i64 %21, %.023.i
  %23 = icmp ult i64 %22, %1
  br i1 %23, label %.lr.ph.i, label %parse_signed_buffer.exit, !llvm.loop !37

parse_signed_buffer.exit:                         ; preds = %get_format_by_sig.exit.i, %4
  %.017.lcssa.i = phi i64 [ 0, %4 ], [ %spec.select.i.i, %get_format_by_sig.exit.i ]
  %.not = icmp eq i64 %.017.lcssa.i, %1
  br i1 %.not, label %28, label %24

24:                                               ; preds = %parse_signed_buffer.exit
  tail call void @strbuf_add(ptr noundef %2, ptr noundef %0, i64 noundef %.017.lcssa.i) #15
  %25 = tail call i32 @remove_signature(ptr noundef %2) #15
  %26 = getelementptr inbounds nuw i8, ptr %0, i64 %.017.lcssa.i
  %27 = sub i64 %1, %.017.lcssa.i
  tail call void @strbuf_add(ptr noundef %3, ptr noundef %26, i64 noundef %27) #15
  br label %28

28:                                               ; preds = %parse_signed_buffer.exit, %24
  %.0 = phi i32 [ 1, %24 ], [ 0, %parse_signed_buffer.exit ]
  ret i32 %.0
}